#include <math.h>
#include <stdio.h>
#include <stdlib.h>
#include <string.h>

void main()
{
	int h,i,d,j;
	int a[20001];
	scanf("%d",&h);
	for(i=1;i<=h;i++)
		scanf("%d",&a[i]);
	printf("%d",a[1]);
	for(i=2;i<=h;i++)
	{
		d=0;
		for(j=1;j<i;j++)
		{
			if(a[i]==a[j])
			{
				d=1;
				break;
			}
		}
		if(d==0)
			printf(" %d",a[i]);
	}
}